Certificate:
    Data:
        Version: 3 (0x2)
        Serial Number: 1 (0x1)
        Signature Algorithm: sha256WithRSAEncryption
        Issuer: C=JP, CN=manager.nomiss.net, ST=Hokkaido, L=Ebetsu, O=HIU, OU=Lab124 TeamC
        Validity
            Not Before: Oct  9 11:55:43 2023 GMT
            Not After : Oct  6 11:55:43 2033 GMT
        Subject: C=JP, ST=Hokkaido, O=HIU, OU=Student, CN=9999999/emailAddress=s9999999@s.do-johodai.ac.jp
        Subject Public Key Info:
            Public Key Algorithm: rsaEncryption
                RSA Public-Key: (2048 bit)
                Modulus:
                    00:b2:22:cf:0b:be:9b:c7:fd:7a:a5:4c:58:52:74:
                    3f:fd:61:35:51:9c:0a:0b:93:7d:3c:8c:e1:91:00:
                    00:91:f6:97:80:9a:e0:36:6a:92:95:9e:4a:a8:dd:
                    c5:35:a3:59:33:6b:ec:3c:58:16:34:36:4e:5b:d3:
                    56:d3:6c:db:9c:6b:5e:76:e9:55:42:f7:22:10:e2:
                    fe:aa:d7:32:b6:15:e9:e3:f7:2e:b1:bd:fa:55:c1:
                    bc:ae:a7:6d:22:08:0d:b4:e6:95:28:86:6e:17:65:
                    03:10:90:c2:8d:7c:84:bf:6d:47:db:9b:19:f8:fd:
                    e9:cb:ec:ad:ff:46:c3:91:a5:87:44:35:a9:ce:45:
                    2b:c1:31:9a:c6:65:92:cf:be:d0:bf:b4:bf:70:de:
                    79:56:99:78:2c:21:27:19:2a:3c:57:34:35:36:21:
                    3d:41:fa:88:59:69:1b:20:e1:55:15:db:1a:29:80:
                    81:a0:05:ff:17:f6:81:eb:13:4b:26:9b:d4:87:0d:
                    2b:b7:1d:4d:18:4a:c3:53:6f:ac:a8:d9:09:ab:57:
                    4c:10:09:48:02:fa:5a:5b:b7:4c:a3:01:54:b6:a0:
                    9e:54:37:38:77:00:b1:ee:42:bb:fa:4c:9a:9d:b1:
                    92:72:ce:31:20:4f:04:aa:33:fd:5f:08:76:b1:8c:
                    35:11
                Exponent: 65537 (0x10001)
        X509v3 extensions:
            X509v3 Basic Constraints:
                CA:FALSE
            Netscape Cert Type:
                SSL Client, S/MIME, Object Signing
            Netscape Comment:
                OpenSSL Generated Certificate
            X509v3 Subject Key Identifier:
                ED:83:97:E9:D5:DC:FB:DE:A1:F3:95:53:05:EF:7C:52:D0:CD:B9:87
            X509v3 Authority Key Identifier:
                DirName:/C=JP/CN=manager.nomiss.net/ST=Hokkaido/L=Ebetsu/O=HIU/OU=Lab124 TeamC
                serial:0F:FF:AB:4E:66:04:8D:4E:E2:B9:B3:BC:EF:01:1C:A7:7D:86:84:BE

    Signature Algorithm: sha256WithRSAEncryption
         08:28:be:f7:f3:a7:4b:ea:d3:87:16:c3:83:29:b1:be:f4:ab:
         09:87:3f:76:b8:d7:98:e8:fb:a8:03:5a:63:6d:04:1c:13:02:
         1c:c3:54:6a:ae:4e:b3:bc:a9:fb:98:f9:ee:0a:cb:12:97:d9:
         b5:52:f0:75:05:6b:59:61:94:dc:69:4d:8c:e9:b4:f5:9f:54:
         36:cc:98:9d:28:e6:3d:f5:32:07:84:ad:19:0c:63:fb:ea:0b:
         d1:b8:f8:6c:2b:45:eb:4b:81:9c:b1:4e:60:9d:d1:9c:4c:d6:
         ce:d3:98:6b:9e:ab:1e:ee:c2:15:a7:79:ca:fe:32:bc:ea:45:
         df:28:dc:7c:dc:9d:a5:a3:e6:fd:a9:48:9f:fc:4a:12:94:d0:
         cb:e8:d7:9e:dc:8b:81:14:5e:92:15:35:89:1c:92:98:a7:0f:
         f7:77:71:ee:9d:bf:a6:ab:c8:2f:df:26:59:14:01:e2:d2:55:
         f9:aa:bf:13:f1:3c:69:f1:c9:bc:59:af:8d:83:2d:1c:a0:00:
         1b:42:17:3e:25:8e:af:34:68:06:a2:c8:15:a1:78:b2:16:71:
         fa:f4:ee:5e:f6:3c:06:ef:ac:34:96:d1:ad:48:1b:09:8c:01:
         80:b0:fc:e1:63:5f:b4:11:4a:76:e0:9b:f8:20:f5:e2:f1:23:
         b0:57:b3:6c
-----BEGIN CERTIFICATE-----
MIIEejCCA2KgAwIBAgIBATANBgkqhkiG9w0BAQsFADBzMQswCQYDVQQGEwJKUDEb
MBkGA1UEAwwSbWFuYWdlci5ub21pc3MubmV0MREwDwYDVQQIDAhIb2trYWlkbzEP
MA0GA1UEBwwGRWJldHN1MQwwCgYDVQQKDANISVUxFTATBgNVBAsMDExhYjEyNCBU
ZWFtQzAeFw0yMzEwMDkxMTU1NDNaFw0zMzEwMDYxMTU1NDNaMH4xCzAJBgNVBAYT
AkpQMREwDwYDVQQIDAhIb2trYWlkbzEMMAoGA1UECgwDSElVMRAwDgYDVQQLDAdT
dHVkZW50MRAwDgYDVQQDDAc5OTk5OTk5MSowKAYJKoZIhvcNAQkBFhtzOTk5OTk5
OUBzLmRvLWpvaG9kYWkuYWMuanAwggEiMA0GCSqGSIb3DQEBAQUAA4IBDwAwggEK
AoIBAQCyIs8LvpvH/XqlTFhSdD/9YTVRnAoLk308jOGRAACR9peAmuA2apKVnkqo
3cU1o1kza+w8WBY0Nk5b01bTbNuca1526VVC9yIQ4v6q1zK2Fenj9y6xvfpVwbyu
p20iCA205pUohm4XZQMQkMKNfIS/bUfbmxn4/enL7K3/RsORpYdENanORSvBMZrG
ZZLPvtC/tL9w3nlWmXgsIScZKjxXNDU2IT1B+ohZaRsg4VUV2xopgIGgBf8X9oHr
E0smm9SHDSu3HU0YSsNTb6yo2QmrV0wQCUgC+lpbt0yjAVS2oJ5UNzh3ALHuQrv6
TJqdsZJyzjEgTwSqM/1fCHaxjDURAgMBAAGjggEMMIIBCDAJBgNVHRMEAjAAMBEG
CWCGSAGG+EIBAQQEAwIEsDAsBglghkgBhvhCAQ0EHxYdT3BlblNTTCBHZW5lcmF0
ZWQgQ2VydGlmaWNhdGUwHQYDVR0OBBYEFO2Dl+nV3PveofOVUwXvfFLQzbmHMIGa
BgNVHSMEgZIwgY+hd6R1MHMxCzAJBgNVBAYTAkpQMRswGQYDVQQDDBJtYW5hZ2Vy
Lm5vbWlzcy5uZXQxETAPBgNVBAgMCEhva2thaWRvMQ8wDQYDVQQHDAZFYmV0c3Ux
DDAKBgNVBAoMA0hJVTEVMBMGA1UECwwMTGFiMTI0IFRlYW1DghQP/6tOZgSNTuK5
s7zvARynfYaEvjANBgkqhkiG9w0BAQsFAAOCAQEACCi+9/OnS+rThxbDgymxvvSr
CYc/drjXmOj7qANaY20EHBMCHMNUaq5Os7yp+5j57grLEpfZtVLwdQVrWWGU3GlN
jOm09Z9UNsyYnSjmPfUyB4StGQxj++oL0bj4bCtF60uBnLFOYJ3RnEzWztOYa56r
Hu7CFad5yv4yvOpF3yjcfNydpaPm/alIn/xKEpTQy+jXntyLgRRekhU1iRySmKcP
93dx7p2/pqvIL98mWRQB4tJV+aq/E/E8afHJvFmvjYMtHKAAG0IXPiWOrzRoBqLI
FaF4shZx+vTuXvY8Bu+sNJbRrUgbCYwBgLD84WNftBFKduCb+CD14vEjsFezbA==
-----END CERTIFICATE-----